; Function Attrs: mustprogress uwtable
define void @_ZN5arrow17jemalloc_get_statEPKc(ptr dead_on_unwind noalias writable sret(%"class.arrow::Result") align 8 %0, ptr noundef readnone captures(none) %1) local_unnamed_addr #4 {
  %3 = alloca %"class.arrow::Status", align 8
  call void @llvm.lifetime.start.p0(i64 8, ptr nonnull %3) #32
  call void @_ZN5arrow6Status8FromArgsIJRA30_KcEEES0_NS_10StatusCodeEDpOT_(ptr dead_on_unwind nonnull writable sret(%"class.arrow::Status") align 8 %3, i8 noundef signext 10, ptr noundef nonnull align 1 dereferenceable(30) @.str.4)
  call void @_ZN5arrow6ResultIlEC2ERKNS_6StatusE(ptr noundef nonnull align 8 dereferenceable(16) %0, ptr noundef nonnull align 8 dereferenceable(8) %3) #32
  %4 = load ptr, ptr %3, align 8, !tbaa !21
  %.not.i = icmp eq ptr %4, null
  br i1 %.not.i, label %_ZN5arrow6StatusD2Ev.exit, label %5, !prof !27

5:                                                ; preds = %2
  %6 = getelementptr inbounds nuw i8, ptr %4, i64 1
  %7 = load i8, ptr %6, align 1, !tbaa !28, !range !8, !noundef !9
  %8 = trunc nuw i8 %7 to i1
  br i1 %8, label %_ZN5arrow6StatusD2Ev.exit, label %9

9:                                                ; preds = %5
  call void @_ZN5arrow6Status11DeleteStateEv(ptr noundef nonnull align 8 dereferenceable(8) %3) #32
  br label %_ZN5arrow6StatusD2Ev.exit

_ZN5arrow6StatusD2Ev.exit:                        ; preds = %2, %5, %9
  call void @llvm.lifetime.end.p0(i64 8, ptr nonnull %3) #32
  ret void
}